target datalayout = "e-m:e-p270:32:32-p271:32:32-p272:64:64-i64:64-i128:128-f80:128-n8:16:32:64-S128"
target triple = "x86_64-pc-linux-gnu"

@ranap_proc_sout_dissector_table = internal global ptr null, align 8
@pdu_type = hidden global i32 0, align 4
@ProcedureCode = internal global i32 0, align 4

; Function Attrs: null_pointer_is_valid sspstrong uwtable
define internal i32 @dissect_SuccessfulOutcomeValue(ptr noundef %0, ptr noundef %1, ptr noundef %2, ptr noundef %3) #0 {
  %5 = alloca ptr, align 8
  %6 = alloca ptr, align 8
  %7 = alloca ptr, align 8
  %8 = alloca ptr, align 8
  %9 = alloca i8, align 1
  store ptr %0, ptr %5, align 8
  store ptr %1, ptr %6, align 8
  store ptr %2, ptr %7, align 8
  store ptr %3, ptr %8, align 8
  call void @llvm.lifetime.start.p0(i64 1, ptr %9) #5
  store i32 131072, ptr @pdu_type, align 4
  %10 = load ptr, ptr @ranap_proc_sout_dissector_table, align 8
  %11 = load i32, ptr @ProcedureCode, align 4
  %12 = load ptr, ptr %5, align 8
  %13 = load ptr, ptr %6, align 8
  %14 = load ptr, ptr %7, align 8
  %15 = call i32 @dissector_try_uint_with_data(ptr noundef %10, i32 noundef %11, ptr noundef %12, ptr noundef %13, ptr noundef %14, i1 noundef zeroext false, ptr noundef null)
  %16 = icmp ne i32 %15, 0
  %17 = zext i1 %16 to i8
  store i8 %17, ptr %9, align 1
  store i32 0, ptr @pdu_type, align 4
  %18 = load i8, ptr %9, align 1, !range !6, !noundef !7
  %19 = trunc i8 %18 to i1
  br i1 %19, label %20, label %23

20:                                               ; preds = %4
  %21 = load ptr, ptr %5, align 8
  %22 = call i32 @tvb_captured_length(ptr noundef %21)
  br label %24

23:                                               ; preds = %4
  br label %24

24:                                               ; preds = %23, %20
  %25 = phi i32 [ %22, %20 ], [ 0, %23 ]
  call void @llvm.lifetime.end.p0(i64 1, ptr %9) #5
  ret i32 %25
}