; Function Attrs: null_pointer_is_valid sspstrong uwtable
define internal i32 @dissect_SuccessfulOutcomeValue(ptr noundef %0, ptr noundef %1, ptr noundef %2, ptr readnone captures(none) %3) #0 {
  store i32 131072, ptr @pdu_type, align 4
  %5 = load ptr, ptr @ranap_proc_sout_dissector_table, align 8
  %6 = load i32, ptr @ProcedureCode, align 4
  %7 = tail call i32 @dissector_try_uint_with_data(ptr noundef %5, i32 noundef %6, ptr noundef %0, ptr noundef %1, ptr noundef %2, i1 noundef zeroext false, ptr noundef null)
  %.not = icmp eq i32 %7, 0
  store i32 0, ptr @pdu_type, align 4
  br i1 %.not, label %10, label %8

8:                                                ; preds = %4
  %9 = tail call i32 @tvb_captured_length(ptr noundef %0)
  br label %10

10:                                               ; preds = %4, %8
  %11 = phi i32 [ %9, %8 ], [ 0, %4 ]
  ret i32 %11
}